target datalayout = "e-m:e-p270:32:32-p271:32:32-p272:64:64-i64:64-i128:128-f80:128-n8:16:32:64-S128"
target triple = "x86_64-pc-linux-gnu"

; Function Attrs: nounwind uwtable
define dso_local i32 @virtual_chdir_file(ptr noundef %0, ptr noundef %1) #0 {
  %3 = alloca i32, align 4
  %4 = alloca ptr, align 8
  %5 = alloca ptr, align 8
  %6 = alloca i64, align 8
  %7 = alloca ptr, align 8
  %8 = alloca i32, align 4
  %9 = alloca i8, align 1
  %10 = alloca i32, align 4
  store ptr %0, ptr %4, align 8, !tbaa !12
  store ptr %1, ptr %5, align 8, !tbaa !42
  call void @llvm.lifetime.start.p0(i64 8, ptr %6) #16
  %11 = load ptr, ptr %4, align 8, !tbaa !12
  %12 = call i64 @strlen(ptr noundef %11) #17
  store i64 %12, ptr %6, align 8, !tbaa !26
  call void @llvm.lifetime.start.p0(i64 8, ptr %7) #16
  call void @llvm.lifetime.start.p0(i64 4, ptr %8) #16
  call void @llvm.lifetime.start.p0(i64 1, ptr %9) #16
  %13 = load i64, ptr %6, align 8, !tbaa !26
  %14 = icmp eq i64 %13, 0
  br i1 %14, label %15, label %16

15:                                               ; preds = %2
  store i32 1, ptr %3, align 4
  store i32 1, ptr %10, align 4
  br label %354

16:                                               ; preds = %2
  br label %17

17:                                               ; preds = %31, %16
  %18 = load i64, ptr %6, align 8, !tbaa !26
  %19 = add i64 %18, -1
  store i64 %19, ptr %6, align 8, !tbaa !26
  %20 = icmp ult i64 %19, -1
  br i1 %20, label %21, label %29

21:                                               ; preds = %17
  %22 = load ptr, ptr %4, align 8, !tbaa !12
  %23 = load i64, ptr %6, align 8, !tbaa !26
  %24 = getelementptr inbounds nuw i8, ptr %22, i64 %23
  %25 = load i8, ptr %24, align 1, !tbaa !4
  %26 = sext i8 %25 to i32
  %27 = icmp eq i32 %26, 47
  %28 = xor i1 %27, true
  br label %29

29:                                               ; preds = %21, %17
  %30 = phi i1 [ false, %17 ], [ %28, %21 ]
  br i1 %30, label %31, label %32

31:                                               ; preds = %29
  br label %17

32:                                               ; preds = %29
  %33 = load i64, ptr %6, align 8, !tbaa !26
  %34 = icmp eq i64 %33, -1
  br i1 %34, label %35, label %37

35:                                               ; preds = %32
  %36 = call ptr @__errno_location() #19
  store i32 2, ptr %36, align 4, !tbaa !27
  store i32 -1, ptr %3, align 4
  store i32 1, ptr %10, align 4
  br label %354

37:                                               ; preds = %32
  %38 = load i64, ptr %6, align 8, !tbaa !26
  %39 = icmp eq i64 %38, 0
  br i1 %39, label %40, label %49

40:                                               ; preds = %37
  %41 = load ptr, ptr %4, align 8, !tbaa !12
  %42 = getelementptr inbounds i8, ptr %41, i64 0
  %43 = load i8, ptr %42, align 1, !tbaa !4
  %44 = sext i8 %43 to i32
  %45 = icmp eq i32 %44, 47
  br i1 %45, label %46, label %49

46:                                               ; preds = %40
  %47 = load i64, ptr %6, align 8, !tbaa !26
  %48 = add i64 %47, 1
  store i64 %48, ptr %6, align 8, !tbaa !26
  br label %49

49:                                               ; preds = %46, %40, %37
  %50 = load i64, ptr %6, align 8, !tbaa !26
  %51 = add i64 %50, 1
  %52 = icmp ugt i64 %51, 32768
  %53 = xor i1 %52, true
  %54 = xor i1 %53, true
  %55 = zext i1 %54 to i32
  %56 = sext i32 %55 to i64
  %57 = call i64 @llvm.expect.i64(i64 %56, i64 0)
  %58 = icmp ne i64 %57, 0
  %59 = zext i1 %58 to i8
  store i8 %59, ptr %9, align 1, !tbaa !43
  br i1 %58, label %60, label %324

60:                                               ; preds = %49
  %61 = load i64, ptr %6, align 8, !tbaa !26
  %62 = add i64 %61, 1
  %63 = call i1 @llvm.is.constant.i64(i64 %62)
  br i1 %63, label %64, label %318

64:                                               ; preds = %60
  %65 = load i64, ptr %6, align 8, !tbaa !26
  %66 = add i64 %65, 1
  %67 = icmp ule i64 %66, 8
  br i1 %67, label %68, label %70

68:                                               ; preds = %64
  %69 = call noalias ptr @_emalloc_8()
  br label %316

70:                                               ; preds = %64
  %71 = load i64, ptr %6, align 8, !tbaa !26
  %72 = add i64 %71, 1
  %73 = icmp ule i64 %72, 16
  br i1 %73, label %74, label %76

74:                                               ; preds = %70
  %75 = call noalias ptr @_emalloc_16()
  br label %314

76:                                               ; preds = %70
  %77 = load i64, ptr %6, align 8, !tbaa !26
  %78 = add i64 %77, 1
  %79 = icmp ule i64 %78, 24
  br i1 %79, label %80, label %82

80:                                               ; preds = %76
  %81 = call noalias ptr @_emalloc_24()
  br label %312

82:                                               ; preds = %76
  %83 = load i64, ptr %6, align 8, !tbaa !26
  %84 = add i64 %83, 1
  %85 = icmp ule i64 %84, 32
  br i1 %85, label %86, label %88

86:                                               ; preds = %82
  %87 = call noalias ptr @_emalloc_32()
  br label %310

88:                                               ; preds = %82
  %89 = load i64, ptr %6, align 8, !tbaa !26
  %90 = add i64 %89, 1
  %91 = icmp ule i64 %90, 40
  br i1 %91, label %92, label %94

92:                                               ; preds = %88
  %93 = call noalias ptr @_emalloc_40()
  br label %308

94:                                               ; preds = %88
  %95 = load i64, ptr %6, align 8, !tbaa !26
  %96 = add i64 %95, 1
  %97 = icmp ule i64 %96, 48
  br i1 %97, label %98, label %100

98:                                               ; preds = %94
  %99 = call noalias ptr @_emalloc_48()
  br label %306

100:                                              ; preds = %94
  %101 = load i64, ptr %6, align 8, !tbaa !26
  %102 = add i64 %101, 1
  %103 = icmp ule i64 %102, 56
  br i1 %103, label %104, label %106

104:                                              ; preds = %100
  %105 = call noalias ptr @_emalloc_56()
  br label %304

106:                                              ; preds = %100
  %107 = load i64, ptr %6, align 8, !tbaa !26
  %108 = add i64 %107, 1
  %109 = icmp ule i64 %108, 64
  br i1 %109, label %110, label %112

110:                                              ; preds = %106
  %111 = call noalias ptr @_emalloc_64()
  br label %302

112:                                              ; preds = %106
  %113 = load i64, ptr %6, align 8, !tbaa !26
  %114 = add i64 %113, 1
  %115 = icmp ule i64 %114, 80
  br i1 %115, label %116, label %118

116:                                              ; preds = %112
  %117 = call noalias ptr @_emalloc_80()
  br label %300

118:                                              ; preds = %112
  %119 = load i64, ptr %6, align 8, !tbaa !26
  %120 = add i64 %119, 1
  %121 = icmp ule i64 %120, 96
  br i1 %121, label %122, label %124

122:                                              ; preds = %118
  %123 = call noalias ptr @_emalloc_96()
  br label %298

124:                                              ; preds = %118
  %125 = load i64, ptr %6, align 8, !tbaa !26
  %126 = add i64 %125, 1
  %127 = icmp ule i64 %126, 112
  br i1 %127, label %128, label %130

128:                                              ; preds = %124
  %129 = call noalias ptr @_emalloc_112()
  br label %296

130:                                              ; preds = %124
  %131 = load i64, ptr %6, align 8, !tbaa !26
  %132 = add i64 %131, 1
  %133 = icmp ule i64 %132, 128
  br i1 %133, label %134, label %136

134:                                              ; preds = %130
  %135 = call noalias ptr @_emalloc_128()
  br label %294

136:                                              ; preds = %130
  %137 = load i64, ptr %6, align 8, !tbaa !26
  %138 = add i64 %137, 1
  %139 = icmp ule i64 %138, 160
  br i1 %139, label %140, label %142

140:                                              ; preds = %136
  %141 = call noalias ptr @_emalloc_160()
  br label %292

142:                                              ; preds = %136
  %143 = load i64, ptr %6, align 8, !tbaa !26
  %144 = add i64 %143, 1
  %145 = icmp ule i64 %144, 192
  br i1 %145, label %146, label %148

146:                                              ; preds = %142
  %147 = call noalias ptr @_emalloc_192()
  br label %290

148:                                              ; preds = %142
  %149 = load i64, ptr %6, align 8, !tbaa !26
  %150 = add i64 %149, 1
  %151 = icmp ule i64 %150, 224
  br i1 %151, label %152, label %154

152:                                              ; preds = %148
  %153 = call noalias ptr @_emalloc_224()
  br label %288

154:                                              ; preds = %148
  %155 = load i64, ptr %6, align 8, !tbaa !26
  %156 = add i64 %155, 1
  %157 = icmp ule i64 %156, 256
  br i1 %157, label %158, label %160

158:                                              ; preds = %154
  %159 = call noalias ptr @_emalloc_256()
  br label %286

160:                                              ; preds = %154
  %161 = load i64, ptr %6, align 8, !tbaa !26
  %162 = add i64 %161, 1
  %163 = icmp ule i64 %162, 320
  br i1 %163, label %164, label %166

164:                                              ; preds = %160
  %165 = call noalias ptr @_emalloc_320()
  br label %284

166:                                              ; preds = %160
  %167 = load i64, ptr %6, align 8, !tbaa !26
  %168 = add i64 %167, 1
  %169 = icmp ule i64 %168, 384
  br i1 %169, label %170, label %172

170:                                              ; preds = %166
  %171 = call noalias ptr @_emalloc_384()
  br label %282

172:                                              ; preds = %166
  %173 = load i64, ptr %6, align 8, !tbaa !26
  %174 = add i64 %173, 1
  %175 = icmp ule i64 %174, 448
  br i1 %175, label %176, label %178

176:                                              ; preds = %172
  %177 = call noalias ptr @_emalloc_448()
  br label %280

178:                                              ; preds = %172
  %179 = load i64, ptr %6, align 8, !tbaa !26
  %180 = add i64 %179, 1
  %181 = icmp ule i64 %180, 512
  br i1 %181, label %182, label %184

182:                                              ; preds = %178
  %183 = call noalias ptr @_emalloc_512()
  br label %278

184:                                              ; preds = %178
  %185 = load i64, ptr %6, align 8, !tbaa !26
  %186 = add i64 %185, 1
  %187 = icmp ule i64 %186, 640
  br i1 %187, label %188, label %190

188:                                              ; preds = %184
  %189 = call noalias ptr @_emalloc_640()
  br label %276

190:                                              ; preds = %184
  %191 = load i64, ptr %6, align 8, !tbaa !26
  %192 = add i64 %191, 1
  %193 = icmp ule i64 %192, 768
  br i1 %193, label %194, label %196

194:                                              ; preds = %190
  %195 = call noalias ptr @_emalloc_768()
  br label %274

196:                                              ; preds = %190
  %197 = load i64, ptr %6, align 8, !tbaa !26
  %198 = add i64 %197, 1
  %199 = icmp ule i64 %198, 896
  br i1 %199, label %200, label %202

200:                                              ; preds = %196
  %201 = call noalias ptr @_emalloc_896()
  br label %272

202:                                              ; preds = %196
  %203 = load i64, ptr %6, align 8, !tbaa !26
  %204 = add i64 %203, 1
  %205 = icmp ule i64 %204, 1024
  br i1 %205, label %206, label %208

206:                                              ; preds = %202
  %207 = call noalias ptr @_emalloc_1024()
  br label %270

208:                                              ; preds = %202
  %209 = load i64, ptr %6, align 8, !tbaa !26
  %210 = add i64 %209, 1
  %211 = icmp ule i64 %210, 1280
  br i1 %211, label %212, label %214

212:                                              ; preds = %208
  %213 = call noalias ptr @_emalloc_1280()
  br label %268

214:                                              ; preds = %208
  %215 = load i64, ptr %6, align 8, !tbaa !26
  %216 = add i64 %215, 1
  %217 = icmp ule i64 %216, 1536
  br i1 %217, label %218, label %220

218:                                              ; preds = %214
  %219 = call noalias ptr @_emalloc_1536()
  br label %266

220:                                              ; preds = %214
  %221 = load i64, ptr %6, align 8, !tbaa !26
  %222 = add i64 %221, 1
  %223 = icmp ule i64 %222, 1792
  br i1 %223, label %224, label %226

224:                                              ; preds = %220
  %225 = call noalias ptr @_emalloc_1792()
  br label %264

226:                                              ; preds = %220
  %227 = load i64, ptr %6, align 8, !tbaa !26
  %228 = add i64 %227, 1
  %229 = icmp ule i64 %228, 2048
  br i1 %229, label %230, label %232

230:                                              ; preds = %226
  %231 = call noalias ptr @_emalloc_2048()
  br label %262

232:                                              ; preds = %226
  %233 = load i64, ptr %6, align 8, !tbaa !26
  %234 = add i64 %233, 1
  %235 = icmp ule i64 %234, 2560
  br i1 %235, label %236, label %238

236:                                              ; preds = %232
  %237 = call noalias ptr @_emalloc_2560()
  br label %260

238:                                              ; preds = %232
  %239 = load i64, ptr %6, align 8, !tbaa !26
  %240 = add i64 %239, 1
  %241 = icmp ule i64 %240, 3072
  br i1 %241, label %242, label %244

242:                                              ; preds = %238
  %243 = call noalias ptr @_emalloc_3072()
  br label %258

244:                                              ; preds = %238
  %245 = load i64, ptr %6, align 8, !tbaa !26
  %246 = add i64 %245, 1
  %247 = icmp ule i64 %246, 2093056
  br i1 %247, label %248, label %252

248:                                              ; preds = %244
  %249 = load i64, ptr %6, align 8, !tbaa !26
  %250 = add i64 %249, 1
  %251 = call noalias ptr @_emalloc_large(i64 noundef %250) #18
  br label %256

252:                                              ; preds = %244
  %253 = load i64, ptr %6, align 8, !tbaa !26
  %254 = add i64 %253, 1
  %255 = call noalias ptr @_emalloc_huge(i64 noundef %254) #18
  br label %256

256:                                              ; preds = %252, %248
  %257 = phi ptr [ %251, %248 ], [ %255, %252 ]
  br label %258

258:                                              ; preds = %256, %242
  %259 = phi ptr [ %243, %242 ], [ %257, %256 ]
  br label %260

260:                                              ; preds = %258, %236
  %261 = phi ptr [ %237, %236 ], [ %259, %258 ]
  br label %262

262:                                              ; preds = %260, %230
  %263 = phi ptr [ %231, %230 ], [ %261, %260 ]
  br label %264

264:                                              ; preds = %262, %224
  %265 = phi ptr [ %225, %224 ], [ %263, %262 ]
  br label %266

266:                                              ; preds = %264, %218
  %267 = phi ptr [ %219, %218 ], [ %265, %264 ]
  br label %268

268:                                              ; preds = %266, %212
  %269 = phi ptr [ %213, %212 ], [ %267, %266 ]
  br label %270

270:                                              ; preds = %268, %206
  %271 = phi ptr [ %207, %206 ], [ %269, %268 ]
  br label %272

272:                                              ; preds = %270, %200
  %273 = phi ptr [ %201, %200 ], [ %271, %270 ]
  br label %274

274:                                              ; preds = %272, %194
  %275 = phi ptr [ %195, %194 ], [ %273, %272 ]
  br label %276

276:                                              ; preds = %274, %188
  %277 = phi ptr [ %189, %188 ], [ %275, %274 ]
  br label %278

278:                                              ; preds = %276, %182
  %279 = phi ptr [ %183, %182 ], [ %277, %276 ]
  br label %280

280:                                              ; preds = %278, %176
  %281 = phi ptr [ %177, %176 ], [ %279, %278 ]
  br label %282

282:                                              ; preds = %280, %170
  %283 = phi ptr [ %171, %170 ], [ %281, %280 ]
  br label %284

284:                                              ; preds = %282, %164
  %285 = phi ptr [ %165, %164 ], [ %283, %282 ]
  br label %286

286:                                              ; preds = %284, %158
  %287 = phi ptr [ %159, %158 ], [ %285, %284 ]
  br label %288

288:                                              ; preds = %286, %152
  %289 = phi ptr [ %153, %152 ], [ %287, %286 ]
  br label %290

290:                                              ; preds = %288, %146
  %291 = phi ptr [ %147, %146 ], [ %289, %288 ]
  br label %292

292:                                              ; preds = %290, %140
  %293 = phi ptr [ %141, %140 ], [ %291, %290 ]
  br label %294

294:                                              ; preds = %292, %134
  %295 = phi ptr [ %135, %134 ], [ %293, %292 ]
  br label %296

296:                                              ; preds = %294, %128
  %297 = phi ptr [ %129, %128 ], [ %295, %294 ]
  br label %298

298:                                              ; preds = %296, %122
  %299 = phi ptr [ %123, %122 ], [ %297, %296 ]
  br label %300

300:                                              ; preds = %298, %116
  %301 = phi ptr [ %117, %116 ], [ %299, %298 ]
  br label %302

302:                                              ; preds = %300, %110
  %303 = phi ptr [ %111, %110 ], [ %301, %300 ]
  br label %304

304:                                              ; preds = %302, %104
  %305 = phi ptr [ %105, %104 ], [ %303, %302 ]
  br label %306

306:                                              ; preds = %304, %98
  %307 = phi ptr [ %99, %98 ], [ %305, %304 ]
  br label %308

308:                                              ; preds = %306, %92
  %309 = phi ptr [ %93, %92 ], [ %307, %306 ]
  br label %310

310:                                              ; preds = %308, %86
  %311 = phi ptr [ %87, %86 ], [ %309, %308 ]
  br label %312

312:                                              ; preds = %310, %80
  %313 = phi ptr [ %81, %80 ], [ %311, %310 ]
  br label %314

314:                                              ; preds = %312, %74
  %315 = phi ptr [ %75, %74 ], [ %313, %312 ]
  br label %316

316:                                              ; preds = %314, %68
  %317 = phi ptr [ %69, %68 ], [ %315, %314 ]
  br label %322

318:                                              ; preds = %60
  %319 = load i64, ptr %6, align 8, !tbaa !26
  %320 = add i64 %319, 1
  %321 = call noalias ptr @_emalloc(i64 noundef %320) #18
  br label %322

322:                                              ; preds = %318, %316
  %323 = phi ptr [ %317, %316 ], [ %321, %318 ]
  br label %328

324:                                              ; preds = %49
  %325 = load i64, ptr %6, align 8, !tbaa !26
  %326 = add i64 %325, 1
  %327 = alloca i8, i64 %326, align 16
  br label %328

328:                                              ; preds = %324, %322
  %329 = phi ptr [ %323, %322 ], [ %327, %324 ]
  store ptr %329, ptr %7, align 8, !tbaa !12
  %330 = load ptr, ptr %7, align 8, !tbaa !12
  %331 = load ptr, ptr %4, align 8, !tbaa !12
  %332 = load i64, ptr %6, align 8, !tbaa !26
  call void @llvm.memcpy.p0.p0.i64(ptr align 1 %330, ptr align 1 %331, i64 %332, i1 false)
  %333 = load ptr, ptr %7, align 8, !tbaa !12
  %334 = load i64, ptr %6, align 8, !tbaa !26
  %335 = getelementptr inbounds nuw i8, ptr %333, i64 %334
  store i8 0, ptr %335, align 1, !tbaa !4
  %336 = load ptr, ptr %5, align 8, !tbaa !42
  %337 = load ptr, ptr %7, align 8, !tbaa !12
  %338 = call i32 %336(ptr noundef %337)
  store i32 %338, ptr %8, align 4, !tbaa !27
  br label %339

339:                                              ; preds = %328
  %340 = load i8, ptr %9, align 1, !tbaa !43, !range !45, !noundef !46
  %341 = trunc i8 %340 to i1
  %342 = xor i1 %341, true
  %343 = xor i1 %342, true
  %344 = zext i1 %343 to i32
  %345 = sext i32 %344 to i64
  %346 = call i64 @llvm.expect.i64(i64 %345, i64 0)
  %347 = icmp ne i64 %346, 0
  br i1 %347, label %348, label %350

348:                                              ; preds = %339
  %349 = load ptr, ptr %7, align 8, !tbaa !12
  call void @_efree(ptr noundef %349)
  br label %350

350:                                              ; preds = %348, %339
  br label %351

351:                                              ; preds = %350
  br label %352

352:                                              ; preds = %351
  %353 = load i32, ptr %8, align 4, !tbaa !27
  store i32 %353, ptr %3, align 4
  store i32 1, ptr %10, align 4
  br label %354

354:                                              ; preds = %352, %35, %15
  call void @llvm.lifetime.end.p0(i64 1, ptr %9) #16
  call void @llvm.lifetime.end.p0(i64 4, ptr %8) #16
  call void @llvm.lifetime.end.p0(i64 8, ptr %7) #16
  call void @llvm.lifetime.end.p0(i64 8, ptr %6) #16
  %355 = load i32, ptr %3, align 4
  ret i32 %355
}