; Function Attrs: nounwind uwtable
define dso_local i32 @virtual_chdir_file(ptr noundef readonly captures(none) %0, ptr noundef readonly captures(none) %1) local_unnamed_addr #0 {
  %3 = tail call i64 @strlen(ptr noundef nonnull dereferenceable(1) %0) #23
  %4 = icmp eq i64 %3, 0
  br i1 %4, label %28, label %.preheader

.preheader:                                       ; preds = %2, %5
  %.056 = phi i64 [ %6, %5 ], [ %3, %2 ]
  %cond = icmp eq i64 %.056, 0
  br i1 %cond, label %9, label %5

5:                                                ; preds = %.preheader
  %6 = add i64 %.056, -1
  %7 = getelementptr inbounds nuw i8, ptr %0, i64 %6
  %8 = load i8, ptr %7, align 1, !tbaa !11
  %.not61 = icmp eq i8 %8, 47
  br i1 %.not61, label %.critedge, label %.preheader

9:                                                ; preds = %.preheader
  %10 = tail call ptr @__errno_location() #25
  store i32 2, ptr %10, align 4, !tbaa !23
  br label %28

.critedge:                                        ; preds = %5
  %11 = icmp eq i64 %6, 0
  br i1 %11, label %.thread, label %15

.thread:                                          ; preds = %.critedge
  %12 = load i8, ptr %0, align 1, !tbaa !11
  %13 = icmp eq i8 %12, 47
  %spec.select = select i1 %13, i64 %.056, i64 0
  %14 = add nuw nsw i64 %spec.select, 1
  br label %19

15:                                               ; preds = %.critedge
  %16 = icmp ugt i64 %6, 32767
  br i1 %16, label %17, label %19, !prof !39

17:                                               ; preds = %15
  %18 = tail call noalias ptr @_emalloc(i64 noundef %.056) #24
  br label %22

19:                                               ; preds = %.thread, %15
  %20 = phi i64 [ %14, %.thread ], [ %.056, %15 ]
  %.167 = phi i64 [ %spec.select, %.thread ], [ %6, %15 ]
  %21 = alloca i8, i64 %20, align 16
  br label %22

22:                                               ; preds = %17, %19
  %23 = phi i1 [ false, %19 ], [ true, %17 ]
  %.166 = phi i64 [ %.167, %19 ], [ %6, %17 ]
  %24 = phi ptr [ %21, %19 ], [ %18, %17 ]
  call void @llvm.memcpy.p0.p0.i64(ptr align 1 %24, ptr nonnull align 1 %0, i64 %.166, i1 false)
  %25 = getelementptr inbounds nuw i8, ptr %24, i64 %.166
  store i8 0, ptr %25, align 1, !tbaa !11
  %26 = call i32 %1(ptr noundef %24) #22
  br i1 %23, label %27, label %28, !prof !35

27:                                               ; preds = %22
  call void @_efree(ptr noundef nonnull %24) #22
  br label %28

28:                                               ; preds = %22, %27, %2, %9
  %.0 = phi i32 [ -1, %9 ], [ 1, %2 ], [ %26, %27 ], [ %26, %22 ]
  ret i32 %.0
}